; Function Attrs: nounwind uwtable
define dso_local range(i64 -32768, 32768) i64 @i4toi2(ptr noundef readonly captures(none) %0) local_unnamed_addr #0 {
  %2 = getelementptr inbounds nuw i8, ptr %0, i64 32
  %3 = load i64, ptr %2, align 8
  %4 = trunc i64 %3 to i32
  %5 = add i32 %4, -32768
  %or.cond = icmp ult i32 %5, -65536
  br i1 %or.cond, label %6, label %10, !prof !13

6:                                                ; preds = %1
  %7 = tail call zeroext i1 @errstart_cold(i32 noundef 21, ptr noundef null) #15
  tail call void @llvm.assume(i1 %7)
  %8 = tail call i32 @errcode(i32 noundef 50331778) #13
  %9 = tail call i32 (ptr, ...) @errmsg(ptr noundef nonnull @.str.5) #13
  tail call void @errfinish(ptr noundef nonnull @.str.2, i32 noundef 355, ptr noundef nonnull @__func__.i4toi2) #13
  unreachable

10:                                               ; preds = %1
  %sext = shl i64 %3, 48
  %11 = ashr exact i64 %sext, 48
  ret i64 %11
}